target datalayout = "e-m:e-p270:32:32-p271:32:32-p272:64:64-i64:64-i128:128-f80:128-n8:16:32:64-S128"
target triple = "x86_64-pc-linux-gnu"

%struct.CVodeMemRec = type { double, ptr, ptr, i32, i32, i32, double, double, ptr, i32, ptr, ptr, i32, ptr, i32, i32, double, double, ptr, i32, i32, i32, ptr, ptr, ptr, i32, i32, ptr, ptr, ptr, i32, double, i32, i32, double, ptr, ptr, i32, ptr, ptr, i32, i32, i32, double, ptr, ptr, [13 x ptr], ptr, ptr, ptr, ptr, ptr, [13 x ptr], ptr, ptr, ptr, ptr, [13 x ptr], ptr, ptr, ptr, ptr, ptr, i32, [13 x ptr], ptr, ptr, ptr, ptr, ptr, i32, double, i32, i32, i32, i32, i32, double, double, double, double, double, double, double, double, [14 x double], [6 x double], [13 x double], double, double, double, double, double, double, double, double, double, double, double, i32, ptr, i32, i64, i32, i32, i32, i32, i32, double, double, double, i64, i64, i64, i64, i64, i64, i64, i64, i64, ptr, i64, i64, ptr, i64, i64, i64, i64, i64, i64, i32, i64, i64, i64, i64, i64, i64, double, double, double, ptr, ptr, ptr, ptr, ptr, i32, i32, i64, double, double, double, i32, double, i32, i32, i32, i32, i32, i32, i32, i32, i32, i32, i32, i32, i32, i32, i32, i32, ptr, ptr, ptr, i32, [6 x [4 x double]], i32, i64, ptr, i32, ptr, ptr, double, double, double, ptr, ptr, ptr, double, double, i32, i32, i64, ptr, i32, i32, ptr, i32 }
%struct.CVadjMemRec = type { double, double, i32, i32, double, ptr, i32, ptr, i32, ptr, i32, ptr, i64, ptr, i64, i32, ptr, ptr, ptr, ptr, i32, i32, i32, i32, [13 x ptr], [13 x ptr], [13 x double], ptr, ptr, i64 }
%struct.CVodeBMemRec = type { i32, double, ptr, i32, i32, ptr, ptr, ptr, ptr, ptr, ptr, ptr, ptr, ptr, double, ptr, ptr }
%struct.CVDlsMemRecB = type { i32, ptr, ptr, ptr, ptr }

@.str.5 = private unnamed_addr constant [7 x i8] c"CVSDLS\00", align 1
@.str.25 = private unnamed_addr constant [22 x i8] c"cvDlsDenseJacBWrapper\00", align 1
@.str.26 = private unnamed_addr constant [25 x i8] c"Bad t for interpolation.\00", align 1

; Function Attrs: nounwind uwtable
define internal i32 @cvDlsDenseJacBWrapper(i64 noundef %0, double noundef %1, ptr noundef %2, ptr noundef %3, ptr noundef %4, ptr noundef %5, ptr noundef %6, ptr noundef %7, ptr noundef %8) #0 {
  %10 = alloca i32, align 4
  %11 = alloca i64, align 8
  %12 = alloca double, align 8
  %13 = alloca ptr, align 8
  %14 = alloca ptr, align 8
  %15 = alloca ptr, align 8
  %16 = alloca ptr, align 8
  %17 = alloca ptr, align 8
  %18 = alloca ptr, align 8
  %19 = alloca ptr, align 8
  %20 = alloca ptr, align 8
  %21 = alloca ptr, align 8
  %22 = alloca ptr, align 8
  %23 = alloca ptr, align 8
  %24 = alloca i32, align 4
  %25 = alloca i32, align 4
  %26 = alloca i32, align 4
  store i64 %0, ptr %11, align 8, !tbaa !31
  store double %1, ptr %12, align 8, !tbaa !40
  store ptr %2, ptr %13, align 8, !tbaa !41
  store ptr %3, ptr %14, align 8, !tbaa !41
  store ptr %4, ptr %15, align 8, !tbaa !42
  store ptr %5, ptr %16, align 8, !tbaa !3
  store ptr %6, ptr %17, align 8, !tbaa !41
  store ptr %7, ptr %18, align 8, !tbaa !41
  store ptr %8, ptr %19, align 8, !tbaa !41
  call void @llvm.lifetime.start.p0(i64 8, ptr %20) #5
  call void @llvm.lifetime.start.p0(i64 8, ptr %21) #5
  call void @llvm.lifetime.start.p0(i64 8, ptr %22) #5
  call void @llvm.lifetime.start.p0(i64 8, ptr %23) #5
  call void @llvm.lifetime.start.p0(i64 4, ptr %24) #5
  call void @llvm.lifetime.start.p0(i64 4, ptr %25) #5
  %27 = load ptr, ptr %16, align 8, !tbaa !3
  store ptr %27, ptr %20, align 8, !tbaa !7
  %28 = load ptr, ptr %20, align 8, !tbaa !7
  %29 = getelementptr inbounds nuw %struct.CVodeMemRec, ptr %28, i32 0, i32 194
  %30 = load ptr, ptr %29, align 8, !tbaa !62
  store ptr %30, ptr %21, align 8, !tbaa !63
  %31 = load ptr, ptr %21, align 8, !tbaa !63
  %32 = getelementptr inbounds nuw %struct.CVadjMemRec, ptr %31, i32 0, i32 7
  %33 = load ptr, ptr %32, align 8, !tbaa !81
  store ptr %33, ptr %22, align 8, !tbaa !70
  %34 = load ptr, ptr %22, align 8, !tbaa !70
  %35 = getelementptr inbounds nuw %struct.CVodeBMemRec, ptr %34, i32 0, i32 10
  %36 = load ptr, ptr %35, align 8, !tbaa !76
  store ptr %36, ptr %23, align 8, !tbaa !77
  %37 = load ptr, ptr %21, align 8, !tbaa !63
  %38 = getelementptr inbounds nuw %struct.CVadjMemRec, ptr %37, i32 0, i32 19
  %39 = load ptr, ptr %38, align 8, !tbaa !82
  %40 = load ptr, ptr %20, align 8, !tbaa !7
  %41 = load double, ptr %12, align 8, !tbaa !40
  %42 = load ptr, ptr %21, align 8, !tbaa !63
  %43 = getelementptr inbounds nuw %struct.CVadjMemRec, ptr %42, i32 0, i32 27
  %44 = load ptr, ptr %43, align 8, !tbaa !83
  %45 = call i32 %39(ptr noundef %40, double noundef %41, ptr noundef %44, ptr noundef null)
  store i32 %45, ptr %25, align 4, !tbaa !43
  %46 = load i32, ptr %25, align 4, !tbaa !43
  %47 = icmp ne i32 %46, 0
  br i1 %47, label %48, label %50

48:                                               ; preds = %9
  %49 = load ptr, ptr %20, align 8, !tbaa !7
  call void (ptr, i32, ptr, ptr, ptr, ...) @cvProcessError(ptr noundef %49, i32 noundef -1, ptr noundef @.str.5, ptr noundef @.str.25, ptr noundef @.str.26)
  store i32 -1, ptr %10, align 4
  store i32 1, ptr %26, align 4
  br label %70

50:                                               ; preds = %9
  %51 = load ptr, ptr %23, align 8, !tbaa !77
  %52 = getelementptr inbounds nuw %struct.CVDlsMemRecB, ptr %51, i32 0, i32 1
  %53 = load ptr, ptr %52, align 8, !tbaa !79
  %54 = load i64, ptr %11, align 8, !tbaa !31
  %55 = load double, ptr %12, align 8, !tbaa !40
  %56 = load ptr, ptr %21, align 8, !tbaa !63
  %57 = getelementptr inbounds nuw %struct.CVadjMemRec, ptr %56, i32 0, i32 27
  %58 = load ptr, ptr %57, align 8, !tbaa !83
  %59 = load ptr, ptr %13, align 8, !tbaa !41
  %60 = load ptr, ptr %14, align 8, !tbaa !41
  %61 = load ptr, ptr %15, align 8, !tbaa !42
  %62 = load ptr, ptr %22, align 8, !tbaa !70
  %63 = getelementptr inbounds nuw %struct.CVodeBMemRec, ptr %62, i32 0, i32 9
  %64 = load ptr, ptr %63, align 8, !tbaa !84
  %65 = load ptr, ptr %17, align 8, !tbaa !41
  %66 = load ptr, ptr %18, align 8, !tbaa !41
  %67 = load ptr, ptr %19, align 8, !tbaa !41
  %68 = call i32 %53(i64 noundef %54, double noundef %55, ptr noundef %58, ptr noundef %59, ptr noundef %60, ptr noundef %61, ptr noundef %64, ptr noundef %65, ptr noundef %66, ptr noundef %67)
  store i32 %68, ptr %24, align 4, !tbaa !43
  %69 = load i32, ptr %24, align 4, !tbaa !43
  store i32 %69, ptr %10, align 4
  store i32 1, ptr %26, align 4
  br label %70

70:                                               ; preds = %50, %48
  call void @llvm.lifetime.end.p0(i64 4, ptr %25) #5
  call void @llvm.lifetime.end.p0(i64 4, ptr %24) #5
  call void @llvm.lifetime.end.p0(i64 8, ptr %23) #5
  call void @llvm.lifetime.end.p0(i64 8, ptr %22) #5
  call void @llvm.lifetime.end.p0(i64 8, ptr %21) #5
  call void @llvm.lifetime.end.p0(i64 8, ptr %20) #5
  %71 = load i32, ptr %10, align 4
  ret i32 %71
}