; Function Attrs: nounwind uwtable
define internal i32 @cvDlsDenseJacBWrapper(i64 noundef %0, double noundef %1, ptr noundef %2, ptr noundef %3, ptr noundef %4, ptr noundef %5, ptr noundef %6, ptr noundef %7, ptr noundef %8) #0 {
  %10 = getelementptr inbounds nuw i8, ptr %5, i64 2192
  %11 = load ptr, ptr %10, align 8, !tbaa !51
  %12 = getelementptr inbounds nuw i8, ptr %11, i64 48
  %13 = load ptr, ptr %12, align 8, !tbaa !66
  %14 = getelementptr inbounds nuw i8, ptr %13, i64 72
  %15 = load ptr, ptr %14, align 8, !tbaa !63
  %16 = getelementptr inbounds nuw i8, ptr %11, i64 144
  %17 = load ptr, ptr %16, align 8, !tbaa !67
  %18 = getelementptr inbounds nuw i8, ptr %11, i64 480
  %19 = load ptr, ptr %18, align 8, !tbaa !68
  %20 = tail call i32 %17(ptr noundef %5, double noundef %1, ptr noundef %19, ptr noundef null) #6
  %.not = icmp eq i32 %20, 0
  br i1 %.not, label %22, label %21

21:                                               ; preds = %9
  tail call void (ptr, i32, ptr, ptr, ptr, ...) @cvProcessError(ptr noundef nonnull %5, i32 noundef -1, ptr noundef nonnull @.str.5, ptr noundef nonnull @.str.25, ptr noundef nonnull @.str.26) #6
  br label %29

22:                                               ; preds = %9
  %23 = getelementptr inbounds nuw i8, ptr %15, i64 8
  %24 = load ptr, ptr %23, align 8, !tbaa !64
  %25 = load ptr, ptr %18, align 8, !tbaa !68
  %26 = getelementptr inbounds nuw i8, ptr %13, i64 64
  %27 = load ptr, ptr %26, align 8, !tbaa !69
  %28 = tail call i32 %24(i64 noundef %0, double noundef %1, ptr noundef %25, ptr noundef %2, ptr noundef %3, ptr noundef %4, ptr noundef %27, ptr noundef %6, ptr noundef %7, ptr noundef %8) #6
  br label %29

29:                                               ; preds = %22, %21
  %.0 = phi i32 [ -1, %21 ], [ %28, %22 ]
  ret i32 %.0
}